target datalayout = "e-m:e-p270:32:32-p271:32:32-p272:64:64-i64:64-i128:128-f80:128-n8:16:32:64-S128"
target triple = "x86_64-pc-linux-gnu"

%struct.ForEachState = type { ptr, i32 }
%struct.List = type { i32, i32, i32, ptr, [0 x %union.ListCell] }
%union.ListCell = type { ptr }
%struct.Expr = type { i32 }
%struct.TargetEntry = type { %struct.Expr, ptr, i16, ptr, i32, i32, i16, i8 }

; Function Attrs: nounwind uwtable
define internal ptr @findTargetlistEntrySQL99(ptr noundef %0, ptr noundef %1, ptr noundef %2, i32 noundef %3) #0 {
  %5 = alloca ptr, align 8
  %6 = alloca ptr, align 8
  %7 = alloca ptr, align 8
  %8 = alloca ptr, align 8
  %9 = alloca i32, align 4
  %10 = alloca ptr, align 8
  %11 = alloca ptr, align 8
  %12 = alloca ptr, align 8
  %13 = alloca %struct.ForEachState, align 8
  %14 = alloca i32, align 4
  %15 = alloca ptr, align 8
  %16 = alloca ptr, align 8
  store ptr %0, ptr %6, align 8
  store ptr %1, ptr %7, align 8
  store ptr %2, ptr %8, align 8
  store i32 %3, ptr %9, align 4
  call void @llvm.lifetime.start.p0(i64 8, ptr %10) #8
  call void @llvm.lifetime.start.p0(i64 8, ptr %11) #8
  call void @llvm.lifetime.start.p0(i64 8, ptr %12) #8
  %17 = load ptr, ptr %6, align 8
  %18 = load ptr, ptr %7, align 8
  %19 = load i32, ptr %9, align 4
  %20 = call ptr @transformExpr(ptr noundef %17, ptr noundef %18, i32 noundef %19)
  store ptr %20, ptr %12, align 8
  call void @llvm.lifetime.start.p0(i64 16, ptr %13) #8
  %21 = getelementptr inbounds nuw %struct.ForEachState, ptr %13, i32 0, i32 0
  %22 = load ptr, ptr %8, align 8
  %23 = load ptr, ptr %22, align 8
  store ptr %23, ptr %21, align 8
  %24 = getelementptr inbounds nuw %struct.ForEachState, ptr %13, i32 0, i32 1
  store i32 0, ptr %24, align 8
  %25 = getelementptr i8, ptr %13, i64 12
  call void @llvm.memset.p0.i64(ptr align 4 %25, i8 0, i64 4, i1 false)
  br label %26

26:                                               ; preds = %68, %4
  %27 = getelementptr inbounds nuw %struct.ForEachState, ptr %13, i32 0, i32 0
  %28 = load ptr, ptr %27, align 8
  %29 = icmp ne ptr %28, null
  br i1 %29, label %30, label %47

30:                                               ; preds = %26
  %31 = getelementptr inbounds nuw %struct.ForEachState, ptr %13, i32 0, i32 1
  %32 = load i32, ptr %31, align 8
  %33 = getelementptr inbounds nuw %struct.ForEachState, ptr %13, i32 0, i32 0
  %34 = load ptr, ptr %33, align 8
  %35 = getelementptr inbounds nuw %struct.List, ptr %34, i32 0, i32 1
  %36 = load i32, ptr %35, align 4
  %37 = icmp slt i32 %32, %36
  br i1 %37, label %38, label %47

38:                                               ; preds = %30
  %39 = getelementptr inbounds nuw %struct.ForEachState, ptr %13, i32 0, i32 0
  %40 = load ptr, ptr %39, align 8
  %41 = getelementptr inbounds nuw %struct.List, ptr %40, i32 0, i32 3
  %42 = load ptr, ptr %41, align 8
  %43 = getelementptr inbounds nuw %struct.ForEachState, ptr %13, i32 0, i32 1
  %44 = load i32, ptr %43, align 8
  %45 = sext i32 %44 to i64
  %46 = getelementptr inbounds %union.ListCell, ptr %42, i64 %45
  store ptr %46, ptr %11, align 8
  br label %48

47:                                               ; preds = %30, %26
  store ptr null, ptr %11, align 8
  br label %48

48:                                               ; preds = %47, %38
  %49 = phi i32 [ 1, %38 ], [ 0, %47 ]
  %50 = icmp ne i32 %49, 0
  br i1 %50, label %52, label %51

51:                                               ; preds = %48
  store i32 2, ptr %14, align 4
  br label %72

52:                                               ; preds = %48
  call void @llvm.lifetime.start.p0(i64 8, ptr %15) #8
  %53 = load ptr, ptr %11, align 8
  %54 = load ptr, ptr %53, align 8
  store ptr %54, ptr %15, align 8
  call void @llvm.lifetime.start.p0(i64 8, ptr %16) #8
  %55 = load ptr, ptr %15, align 8
  %56 = getelementptr inbounds nuw %struct.TargetEntry, ptr %55, i32 0, i32 1
  %57 = load ptr, ptr %56, align 8
  %58 = call ptr @strip_implicit_coercions(ptr noundef %57)
  store ptr %58, ptr %16, align 8
  %59 = load ptr, ptr %12, align 8
  %60 = load ptr, ptr %16, align 8
  %61 = call zeroext i1 @equal(ptr noundef %59, ptr noundef %60)
  br i1 %61, label %62, label %64

62:                                               ; preds = %52
  %63 = load ptr, ptr %15, align 8
  store ptr %63, ptr %5, align 8
  store i32 1, ptr %14, align 4
  br label %65

64:                                               ; preds = %52
  store i32 0, ptr %14, align 4
  br label %65

65:                                               ; preds = %64, %62
  call void @llvm.lifetime.end.p0(i64 8, ptr %16) #8
  call void @llvm.lifetime.end.p0(i64 8, ptr %15) #8
  %66 = load i32, ptr %14, align 4
  switch i32 %66, label %72 [
    i32 0, label %67
  ]

67:                                               ; preds = %65
  br label %68

68:                                               ; preds = %67
  %69 = getelementptr inbounds nuw %struct.ForEachState, ptr %13, i32 0, i32 1
  %70 = load i32, ptr %69, align 8
  %71 = add i32 %70, 1
  store i32 %71, ptr %69, align 8
  br label %26, !llvm.loop !24

72:                                               ; preds = %65, %51
  call void @llvm.lifetime.end.p0(i64 16, ptr %13) #8
  %73 = load i32, ptr %14, align 4
  switch i32 %73, label %86 [
    i32 2, label %74
  ]

74:                                               ; preds = %72
  %75 = load ptr, ptr %6, align 8
  %76 = load ptr, ptr %7, align 8
  %77 = load ptr, ptr %12, align 8
  %78 = load i32, ptr %9, align 4
  %79 = call ptr @transformTargetEntry(ptr noundef %75, ptr noundef %76, ptr noundef %77, i32 noundef %78, ptr noundef null, i1 noundef zeroext true)
  store ptr %79, ptr %10, align 8
  %80 = load ptr, ptr %8, align 8
  %81 = load ptr, ptr %80, align 8
  %82 = load ptr, ptr %10, align 8
  %83 = call ptr @lappend(ptr noundef %81, ptr noundef %82)
  %84 = load ptr, ptr %8, align 8
  store ptr %83, ptr %84, align 8
  %85 = load ptr, ptr %10, align 8
  store ptr %85, ptr %5, align 8
  store i32 1, ptr %14, align 4
  br label %86

86:                                               ; preds = %74, %72
  call void @llvm.lifetime.end.p0(i64 8, ptr %12) #8
  call void @llvm.lifetime.end.p0(i64 8, ptr %11) #8
  call void @llvm.lifetime.end.p0(i64 8, ptr %10) #8
  %87 = load ptr, ptr %5, align 8
  ret ptr %87
}