; Function Attrs: nounwind uwtable
define internal fastcc ptr @findTargetlistEntrySQL99(ptr noundef %0, ptr noundef %1, ptr noundef captures(none) %2, i32 noundef %3) unnamed_addr #0 {
  %5 = tail call ptr @transformExpr(ptr noundef %0, ptr noundef %1, i32 noundef %3) #9
  %6 = load ptr, ptr %2, align 8
  %.not = icmp eq ptr %6, null
  br i1 %.not, label %._crit_edge, label %.lr.ph

.lr.ph:                                           ; preds = %4
  %7 = getelementptr inbounds nuw i8, ptr %6, i64 4
  %8 = getelementptr inbounds nuw i8, ptr %6, i64 16
  %9 = load i32, ptr %7, align 4
  %10 = icmp sgt i32 %9, 0
  br i1 %10, label %.lr.ph38, label %._crit_edge

11:                                               ; preds = %.lr.ph38
  %indvars.iv.next = add nuw nsw i64 %indvars.iv, 1
  %12 = load i32, ptr %7, align 4
  %13 = sext i32 %12 to i64
  %14 = icmp slt i64 %indvars.iv.next, %13
  br i1 %14, label %.lr.ph38, label %._crit_edge

.lr.ph38:                                         ; preds = %.lr.ph, %11
  %indvars.iv = phi i64 [ %indvars.iv.next, %11 ], [ 0, %.lr.ph ]
  %15 = load ptr, ptr %8, align 8
  %16 = getelementptr inbounds nuw %union.ListCell, ptr %15, i64 %indvars.iv
  %17 = load ptr, ptr %16, align 8
  %18 = getelementptr inbounds nuw i8, ptr %17, i64 8
  %19 = load ptr, ptr %18, align 8
  %20 = tail call ptr @strip_implicit_coercions(ptr noundef %19) #9
  %21 = tail call zeroext i1 @equal(ptr noundef %5, ptr noundef %20) #9
  br i1 %21, label %.loopexit, label %11

._crit_edge:                                      ; preds = %11, %.lr.ph, %4
  %22 = tail call ptr @transformTargetEntry(ptr noundef %0, ptr noundef %1, ptr noundef %5, i32 noundef %3, ptr noundef null, i1 noundef zeroext true) #9
  %23 = load ptr, ptr %2, align 8
  %24 = tail call ptr @lappend(ptr noundef %23, ptr noundef %22) #9
  store ptr %24, ptr %2, align 8
  br label %.loopexit

.loopexit:                                        ; preds = %.lr.ph38, %._crit_edge
  %.3 = phi ptr [ %22, %._crit_edge ], [ %17, %.lr.ph38 ]
  ret ptr %.3
}